; Function Attrs: mustprogress nofree norecurse nosync nounwind willreturn memory(argmem: read) uwtable
define dso_local { i64, i64 } @_ZNK20btConvexHullInternal6Int128mlEl(ptr noundef nonnull readonly align 8 captures(none) dereferenceable(16) %0, i64 noundef %1) local_unnamed_addr #0 align 2 {
  %3 = getelementptr inbounds nuw i8, ptr %0, i64 8
  %4 = load i64, ptr %3, align 8, !tbaa !4
  %5 = icmp sgt i64 %4, -1
  %.sroa.0.0.copyload = load i64, ptr %0, align 8, !tbaa !9
  br i1 %5, label %12, label %6

6:                                                ; preds = %2
  %7 = sub nsw i64 0, %.sroa.0.0.copyload
  %8 = xor i64 %4, -1
  %9 = icmp eq i64 %.sroa.0.0.copyload, 0
  %10 = zext i1 %9 to i64
  %11 = add nuw i64 %10, %8
  br label %12

12:                                               ; preds = %2, %6
  %.sroa.5.0 = phi i64 [ %11, %6 ], [ %4, %2 ]
  %.sroa.0.0 = phi i64 [ %7, %6 ], [ %.sroa.0.0.copyload, %2 ]
  %spec.select = tail call i64 @llvm.abs.i64(i64 %1, i1 true)
  %13 = xor i64 %4, %1
  %spec.select11 = icmp slt i64 %13, 0
  %14 = and i64 %.sroa.0.0, 4294967295
  %15 = and i64 %spec.select, 4294967295
  %16 = mul nuw i64 %14, %15
  %17 = lshr i64 %spec.select, 32
  %18 = mul nuw nsw i64 %14, %17
  %19 = lshr i64 %.sroa.0.0, 32
  %20 = mul nuw i64 %19, %15
  %21 = mul nuw nsw i64 %19, %17
  %22 = and i64 %18, 4294967295
  %23 = and i64 %20, 4294967295
  %24 = add nuw nsw i64 %22, %23
  %25 = lshr i64 %18, 32
  %26 = lshr i64 %20, 32
  %27 = lshr i64 %24, 32
  %28 = shl i64 %24, 32
  %29 = add i64 %28, %16
  %30 = icmp ult i64 %29, %28
  %31 = zext i1 %30 to i64
  %32 = mul i64 %.sroa.5.0, %spec.select
  %33 = add i64 %21, %32
  %34 = add i64 %33, %25
  %35 = add i64 %34, %26
  %spec.select.i.i = add i64 %35, %27
  %36 = add i64 %spec.select.i.i, %31
  br i1 %spec.select11, label %37, label %43

37:                                               ; preds = %12
  %38 = sub nsw i64 0, %29
  %39 = xor i64 %36, -1
  %40 = icmp eq i64 %29, 0
  %41 = zext i1 %40 to i64
  %42 = add i64 %39, %41
  br label %43

43:                                               ; preds = %12, %37
  %.pn18 = phi i64 [ %38, %37 ], [ %29, %12 ]
  %.pn = phi i64 [ %42, %37 ], [ %36, %12 ]
  %.fca.0.insert.i14.pn = insertvalue { i64, i64 } poison, i64 %.pn18, 0
  %.fca.1.insert.merged = insertvalue { i64, i64 } %.fca.0.insert.i14.pn, i64 %.pn, 1
  ret { i64, i64 } %.fca.1.insert.merged
}